(lp0
ccopy_reg
_reconstructor
p1
(c__main__
ActionType
p2
c__builtin__
object
p3
Ntp4
Rp5
(dp6
S'action'
p7
I0
sS'arPose'
p8
g1
(cgeometry_msgs.msg._Pose
Pose
p9
g3
Ntp10
Rp11
(lp12
g1
(cgeometry_msgs.msg._Point
Point
p13
g3
Ntp14
Rp15
(lp16
F0.6622423749361479
aF-0.20234627366256686
aF0.8269863876100945
abag1
(cgeometry_msgs.msg._Quaternion
Quaternion
p17
g3
Ntp18
Rp19
(lp20
F-0.17958615263629363
aF-0.6901839288668327
aF-0.18744572650653288
aF0.6754695091043527
ababsS'arId'
p21
I15
sS'wristPose'
p22
g1
(g9
g3
Ntp23
Rp24
(lp25
g1
(g13
g3
Ntp26
Rp27
(lp28
F0.5956371278942326
aF-0.40569953674858344
aF0.8851433184316817
abag1
(g17
g3
Ntp29
Rp30
(lp31
F0.018863530599428864
aF-0.005904147164842877
aF0.4991079905311493
aF0.8663143321263584
ababsbag1
(g2
g3
Ntp32
Rp33
(dp34
g7
I2
sg8
Nsg21
I0
sg22
Nsbag1
(g2
g3
Ntp35
Rp36
(dp37
g7
I0
sg8
g1
(g9
g3
Ntp38
Rp39
(lp40
g1
(g13
g3
Ntp41
Rp42
(lp43
F0.7162534864269683
aF0.038908637916485446
aF0.7111278607809766
abag1
(g17
g3
Ntp44
Rp45
(lp46
F-0.002274413009483193
aF0.001557049056941406
aF0.0032897773406629555
aF0.9999907899619603
ababsg21
I3
sg22
g1
(g9
g3
Ntp47
Rp48
(lp49
g1
(g13
g3
Ntp50
Rp51
(lp52
F0.7201904390111094
aF-0.18258936032943
aF1.051871870231909
abag1
(g17
g3
Ntp53
Rp54
(lp55
F0.01482081815741138
aF0.00342551250740963
aF0.7105543370029705
aF0.7034778911802955
ababsbag1
(g2
g3
Ntp56
Rp57
(dp58
g7
I0
sg8
g1
(g9
g3
Ntp59
Rp60
(lp61
g1
(g13
g3
Ntp62
Rp63
(lp64
F0.7168159392826201
aF0.039292894496143795
aF0.7115183496810401
abag1
(g17
g3
Ntp65
Rp66
(lp67
F-0.03391696598068695
aF0.005366542944103714
aF-0.055015130836444735
aF0.9978948717247438
ababsg21
I3
sg22
g1
(g9
g3
Ntp68
Rp69
(lp70
g1
(g13
g3
Ntp71
Rp72
(lp73
F0.709751732007465
aF-0.1736251610703671
aF0.9266094826605902
abag1
(g17
g3
Ntp74
Rp75
(lp76
F-0.013198221522919868
aF-0.005464673928201639
aF0.7091039480807388
aF0.7049592435763924
ababsbag1
(g2
g3
Ntp77
Rp78
(dp79
g7
I1
sg8
Nsg21
I0
sg22
Nsba.