(lp0
ccopy_reg
_reconstructor
p1
(c__main__
ActionType
p2
c__builtin__
object
p3
Ntp4
Rp5
(dp6
S'action'
p7
I0
sS'arPose'
p8
g1
(cgeometry_msgs.msg._Pose
Pose
p9
g3
Ntp10
Rp11
(lp12
g1
(cgeometry_msgs.msg._Point
Point
p13
g3
Ntp14
Rp15
(lp16
F0.692390282212952
aF-0.03668059675413885
aF0.8223320841789246
abag1
(cgeometry_msgs.msg._Quaternion
Quaternion
p17
g3
Ntp18
Rp19
(lp20
F0.033316350994037666
aF-0.7102233665335712
aF0.045253477339604296
aF0.7017299431938447
ababsS'arId'
p21
I15
sS'wristPose'
p22
g1
(g9
g3
Ntp23
Rp24
(lp25
g1
(g13
g3
Ntp26
Rp27
(lp28
F0.48379521213286386
aF-0.06727844094868789
aF0.9195367810888364
abag1
(g17
g3
Ntp29
Rp30
(lp31
F-0.004773783692032289
aF0.05706225411412707
aF0.07727362990607453
aF0.9953642028251847
ababsbag1
(g2
g3
Ntp32
Rp33
(dp34
g7
I0
sg8
g1
(g9
g3
Ntp35
Rp36
(lp37
g1
(g13
g3
Ntp38
Rp39
(lp40
F0.692390282212952
aF-0.03668059675413885
aF0.8223320841789246
abag1
(g17
g3
Ntp41
Rp42
(lp43
F0.033316350994037666
aF-0.7102233665335712
aF0.045253477339604296
aF0.7017299431938447
ababsg21
I15
sg22
g1
(g9
g3
Ntp44
Rp45
(lp46
g1
(g13
g3
Ntp47
Rp48
(lp49
F0.6622818677019134
aF-0.04052048712559181
aF0.8979072150328107
abag1
(g17
g3
Ntp50
Rp51
(lp52
F-0.0017769303490917353
aF0.05510953698370301
aF0.073734639334742
aF0.9957524714577172
ababsba.