(lp0
ccopy_reg
_reconstructor
p1
(c__main__
ActionType
p2
c__builtin__
object
p3
Ntp4
Rp5
(dp6
S'action'
p7
I0
sS'arPose'
p8
g1
(cgeometry_msgs.msg._Pose
Pose
p9
g3
Ntp10
Rp11
(lp12
g1
(cgeometry_msgs.msg._Point
Point
p13
g3
Ntp14
Rp15
(lp16
F0.7965927867241848
aF0.013415624100117035
aF0.8262019260430041
abag1
(cgeometry_msgs.msg._Quaternion
Quaternion
p17
g3
Ntp18
Rp19
(lp20
F0.008959838121254827
aF-0.6932753271947358
aF-0.014159940075807797
aF0.7204779927943131
ababsS'arId'
p21
I15
sS'wristPose'
p22
g1
(g9
g3
Ntp23
Rp24
(lp25
g1
(g13
g3
Ntp26
Rp27
(lp28
F0.7160158598646756
aF0.1823164182533581
aF0.8383009857686254
abag1
(g17
g3
Ntp29
Rp30
(lp31
F0.0029796780315788736
aF-0.002580897958972329
aF0.01108964049637273
aF0.9999307377804798
ababsbag1
(g2
g3
Ntp32
Rp33
(dp34
g7
I0
sg8
g1
(g9
g3
Ntp35
Rp36
(lp37
g1
(g13
g3
Ntp38
Rp39
(lp40
F0.7965927867241848
aF0.013415624100117035
aF0.8262019260430041
abag1
(g17
g3
Ntp41
Rp42
(lp43
F0.008959838121254827
aF-0.6932753271947358
aF-0.014159940075807797
aF0.7204779927943131
ababsg21
I15
sg22
g1
(g9
g3
Ntp44
Rp45
(lp46
g1
(g13
g3
Ntp47
Rp48
(lp49
F0.7186017673168043
aF0.06482943330160088
aF0.8384591297736739
abag1
(g17
g3
Ntp50
Rp51
(lp52
F0.002758974895218843
aF0.004368429466471226
aF0.007406728034497879
aF0.9999592217992427
ababsbag1
(g2
g3
Ntp53
Rp54
(dp55
g7
I0
sg8
g1
(g9
g3
Ntp56
Rp57
(lp58
g1
(g13
g3
Ntp59
Rp60
(lp61
F0.7965927867241848
aF0.013415624100117035
aF0.8262019260430041
abag1
(g17
g3
Ntp62
Rp63
(lp64
F0.008959838121254827
aF-0.6932753271947358
aF-0.014159940075807797
aF0.7204779927943131
ababsg21
I15
sg22
g1
(g9
g3
Ntp65
Rp66
(lp67
g1
(g13
g3
Ntp68
Rp69
(lp70
F0.7164969132759219
aF0.16243244298770892
aF1.021786536451938
abag1
(g17
g3
Ntp71
Rp72
(lp73
F0.002462049207822931
aF0.004172083249482135
aF0.010949852905122848
aF0.9999283138087519
ababsbag1
(g2
g3
Ntp74
Rp75
(dp76
g7
I0
sg8
g1
(g9
g3
Ntp77
Rp78
(lp79
g1
(g13
g3
Ntp80
Rp81
(lp82
F0.7965927867241848
aF0.013415624100117035
aF0.8262019260430041
abag1
(g17
g3
Ntp83
Rp84
(lp85
F0.008959838121254827
aF-0.6932753271947358
aF-0.014159940075807797
aF0.7204779927943131
ababsg21
I15
sg22
g1
(g9
g3
Ntp86
Rp87
(lp88
g1
(g13
g3
Ntp89
Rp90
(lp91
F0.7267188996358307
aF-0.31099618448016336
aF1.0218003670955014
abag1
(g17
g3
Ntp92
Rp93
(lp94
F-0.0020384894946032317
aF-0.002579706494483682
aF0.008578032065914286
aF0.9999578026301204
ababsbag1
(g2
g3
Ntp95
Rp96
(dp97
g7
I0
sg8
g1
(g9
g3
Ntp98
Rp99
(lp100
g1
(g13
g3
Ntp101
Rp102
(lp103
F0.7965927867241848
aF0.013415624100117035
aF0.8262019260430041
abag1
(g17
g3
Ntp104
Rp105
(lp106
F0.008959838121254827
aF-0.6932753271947358
aF-0.014159940075807797
aF0.7204779927943131
ababsg21
I15
sg22
g1
(g9
g3
Ntp107
Rp108
(lp109
g1
(g13
g3
Ntp110
Rp111
(lp112
F0.7267687400256703
aF-0.3109352862774998
aF0.7882159022019827
abag1
(g17
g3
Ntp113
Rp114
(lp115
F0.0023762136732812526
aF-0.0008636913497145503
aF0.012035276521268111
aF0.9999243770230266
ababsbag1
(g2
g3
Ntp116
Rp117
(dp118
g7
I0
sg8
g1
(g9
g3
Ntp119
Rp120
(lp121
g1
(g13
g3
Ntp122
Rp123
(lp124
F0.7965927867241848
aF0.013415624100117035
aF0.8262019260430041
abag1
(g17
g3
Ntp125
Rp126
(lp127
F0.008959838121254827
aF-0.6932753271947358
aF-0.014159940075807797
aF0.7204779927943131
ababsg21
I15
sg22
g1
(g9
g3
Ntp128
Rp129
(lp130
g1
(g13
g3
Ntp131
Rp132
(lp133
F0.7213683479785552
aF-0.06395787386589594
aF0.7882019871910093
abag1
(g17
g3
Ntp134
Rp135
(lp136
F0.004485253034064855
aF0.004073102107804967
aF0.008777660822360034
aF0.9999431208898472
ababsbag1
(g2
g3
Ntp137
Rp138
(dp139
g7
I0
sg8
g1
(g9
g3
Ntp140
Rp141
(lp142
g1
(g13
g3
Ntp143
Rp144
(lp145
F0.7965927867241848
aF0.013415624100117035
aF0.8262019260430041
abag1
(g17
g3
Ntp146
Rp147
(lp148
F0.008959838121254827
aF-0.6932753271947358
aF-0.014159940075807797
aF0.7204779927943131
ababsg21
I15
sg22
g1
(g9
g3
Ntp149
Rp150
(lp151
g1
(g13
g3
Ntp152
Rp153
(lp154
F0.7231473785072168
aF-0.12344797650507121
aF1.0173097248109864
abag1
(g17
g3
Ntp155
Rp156
(lp157
F0.0017828962702497897
aF0.001752701482049204
aF0.015871990409417443
aF0.9998709062868305
ababsbag1
(g2
g3
Ntp158
Rp159
(dp160
g7
I0
sg8
g1
(g9
g3
Ntp161
Rp162
(lp163
g1
(g13
g3
Ntp164
Rp165
(lp166
F0.7965927867241848
aF0.013415624100117035
aF0.8262019260430041
abag1
(g17
g3
Ntp167
Rp168
(lp169
F0.008959838121254827
aF-0.6932753271947358
aF-0.014159940075807797
aF0.7204779927943131
ababsg21
I15
sg22
g1
(g9
g3
Ntp170
Rp171
(lp172
g1
(g13
g3
Ntp173
Rp174
(lp175
F0.7118758586798988
aF0.37758191660884005
aF1.0176414122224293
abag1
(g17
g3
Ntp176
Rp177
(lp178
F0.006757062182235757
aF-0.00038226827748296657
aF0.011154344290145609
aF0.9999148846702335
ababsbag1
(g2
g3
Ntp179
Rp180
(dp181
g7
I0
sg8
g1
(g9
g3
Ntp182
Rp183
(lp184
g1
(g13
g3
Ntp185
Rp186
(lp187
F0.7965927867241848
aF0.013415624100117035
aF0.8262019260430041
abag1
(g17
g3
Ntp188
Rp189
(lp190
F0.008959838121254827
aF-0.6932753271947358
aF-0.014159940075807797
aF0.7204779927943131
ababsg21
I15
sg22
g1
(g9
g3
Ntp191
Rp192
(lp193
g1
(g13
g3
Ntp194
Rp195
(lp196
F0.711875618614793
aF0.37755477995526243
aF0.862158862840646
abag1
(g17
g3
Ntp197
Rp198
(lp199
F-0.004835521967211178
aF0.000686629031551161
aF0.006843547977977815
aF0.9999646554348562
ababsba.