(lp0
ccopy_reg
_reconstructor
p1
(c__main__
ActionType
p2
c__builtin__
object
p3
Ntp4
Rp5
(dp6
S'action'
p7
I0
sS'arPose'
p8
g1
(cgeometry_msgs.msg._Pose
Pose
p9
g3
Ntp10
Rp11
(lp12
g1
(cgeometry_msgs.msg._Point
Point
p13
g3
Ntp14
Rp15
(lp16
F0.7965927867241848
aF0.013415624100117035
aF0.8262019260430041
abag1
(cgeometry_msgs.msg._Quaternion
Quaternion
p17
g3
Ntp18
Rp19
(lp20
F0.008959838121254827
aF-0.6932753271947358
aF-0.014159940075807797
aF0.7204779927943131
ababsS'arId'
p21
I15
sS'wristPose'
p22
g1
(g9
g3
Ntp23
Rp24
(lp25
g1
(g13
g3
Ntp26
Rp27
(lp28
F0.7381412977879932
aF0.1798703592274879
aF0.8182010411289344
abag1
(g17
g3
Ntp29
Rp30
(lp31
F0.000278689578885993
aF-0.0030558057768887313
aF-0.003100994344400421
aF0.9999904840633477
ababsbag1
(g2
g3
Ntp32
Rp33
(dp34
g7
I0
sg8
g1
(g9
g3
Ntp35
Rp36
(lp37
g1
(g13
g3
Ntp38
Rp39
(lp40
F0.7001463660487423
aF0.013618096870220737
aF0.7118906790827527
abag1
(g17
g3
Ntp41
Rp42
(lp43
F0.00030432129512698234
aF-0.0022936931521918527
aF-0.007963263490911645
aF0.9999656158062873
ababsg21
I3
sg22
g1
(g9
g3
Ntp44
Rp45
(lp46
g1
(g13
g3
Ntp47
Rp48
(lp49
F0.6007209563309627
aF0.012625434168119481
aF0.8182844842392797
abag1
(g17
g3
Ntp50
Rp51
(lp52
F0.003735363534787943
aF0.0015426387693857355
aF0.0028899714284715268
aF0.9999876576188492
ababsbag1
(g2
g3
Ntp53
Rp54
(dp55
g7
I0
sg8
g1
(g9
g3
Ntp56
Rp57
(lp58
g1
(g13
g3
Ntp59
Rp60
(lp61
F0.7965927867241848
aF0.013415624100117035
aF0.8262019260430041
abag1
(g17
g3
Ntp62
Rp63
(lp64
F0.008959838121254827
aF-0.6932753271947358
aF-0.014159940075807797
aF0.7204779927943131
ababsg21
I15
sg22
g1
(g9
g3
Ntp65
Rp66
(lp67
g1
(g13
g3
Ntp68
Rp69
(lp70
F0.6007202206639795
aF0.01262299060727326
aF0.8182851692871245
abag1
(g17
g3
Ntp71
Rp72
(lp73
F0.0037383714439264224
aF0.001542762985272581
aF0.002886531785948776
aF0.999987656121598
ababsbag1
(g2
g3
Ntp74
Rp75
(dp76
g7
I0
sg8
g1
(g9
g3
Ntp77
Rp78
(lp79
g1
(g13
g3
Ntp80
Rp81
(lp82
F0.7965927867241848
aF0.013415624100117035
aF0.8262019260430041
abag1
(g17
g3
Ntp83
Rp84
(lp85
F0.008959838121254827
aF-0.6932753271947358
aF-0.014159940075807797
aF0.7204779927943131
ababsg21
I15
sg22
g1
(g9
g3
Ntp86
Rp87
(lp88
g1
(g13
g3
Ntp89
Rp90
(lp91
F0.7661459765083003
aF0.16999318295982085
aF1.0007401514043548
abag1
(g17
g3
Ntp92
Rp93
(lp94
F-0.0016553014618834424
aF0.000938292348946571
aF0.003606510356466642
aF0.9999916862992346
ababsbag1
(g2
g3
Ntp95
Rp96
(dp97
g7
I0
sg8
g1
(g9
g3
Ntp98
Rp99
(lp100
g1
(g13
g3
Ntp101
Rp102
(lp103
F0.7965927867241848
aF0.013415624100117035
aF0.8262019260430041
abag1
(g17
g3
Ntp104
Rp105
(lp106
F0.008959838121254827
aF-0.6932753271947358
aF-0.014159940075807797
aF0.7204779927943131
ababsg21
I15
sg22
g1
(g9
g3
Ntp107
Rp108
(lp109
g1
(g13
g3
Ntp110
Rp111
(lp112
F0.7661045874159823
aF-0.16031847471433686
aF1.0008069227090832
abag1
(g17
g3
Ntp113
Rp114
(lp115
F0.0028527113101354806
aF0.0018966434091630233
aF-0.0030883658430795606
aF0.9999893633326201
ababsbag1
(g2
g3
Ntp116
Rp117
(dp118
g7
I0
sg8
g1
(g9
g3
Ntp119
Rp120
(lp121
g1
(g13
g3
Ntp122
Rp123
(lp124
F0.7965927867241848
aF0.013415624100117035
aF0.8262019260430041
abag1
(g17
g3
Ntp125
Rp126
(lp127
F0.008959838121254827
aF-0.6932753271947358
aF-0.014159940075807797
aF0.7204779927943131
ababsg21
I15
sg22
g1
(g9
g3
Ntp128
Rp129
(lp130
g1
(g13
g3
Ntp131
Rp132
(lp133
F0.7661393081788147
aF-0.16018234814283322
aF0.7776387523567883
abag1
(g17
g3
Ntp134
Rp135
(lp136
F0.004928552547367084
aF-0.004441828762156146
aF0.004506143036902138
aF0.9999678365837406
ababsbag1
(g2
g3
Ntp137
Rp138
(dp139
g7
I0
sg8
g1
(g9
g3
Ntp140
Rp141
(lp142
g1
(g13
g3
Ntp143
Rp144
(lp145
F0.7001463660487423
aF0.013618096870220737
aF0.7118906790827527
abag1
(g17
g3
Ntp146
Rp147
(lp148
F0.00030432129512698234
aF-0.0022936931521918527
aF-0.007963263490911645
aF0.9999656158062873
ababsg21
I3
sg22
g1
(g9
g3
Ntp149
Rp150
(lp151
g1
(g13
g3
Ntp152
Rp153
(lp154
F0.6440666514691403
aF0.005772037691167627
aF0.777536984400846
abag1
(g17
g3
Ntp155
Rp156
(lp157
F-0.00010139150894089872
aF0.004639671073066466
aF0.0009676193514998042
aF0.9999887633793123
ababsbag1
(g2
g3
Ntp158
Rp159
(dp160
g7
I0
sg8
g1
(g9
g3
Ntp161
Rp162
(lp163
g1
(g13
g3
Ntp164
Rp165
(lp166
F0.7965927867241848
aF0.013415624100117035
aF0.8262019260430041
abag1
(g17
g3
Ntp167
Rp168
(lp169
F0.008959838121254827
aF-0.6932753271947358
aF-0.014159940075807797
aF0.7204779927943131
ababsg21
I15
sg22
g1
(g9
g3
Ntp170
Rp171
(lp172
g1
(g13
g3
Ntp173
Rp174
(lp175
F0.7553324288021934
aF-0.1594895456612016
aF1.0184071838589122
abag1
(g17
g3
Ntp176
Rp177
(lp178
F-0.002102638721695057
aF0.0016869582317194192
aF-0.0043175991731310695
aF0.9999870456259474
ababsbag1
(g2
g3
Ntp179
Rp180
(dp181
g7
I0
sg8
g1
(g9
g3
Ntp182
Rp183
(lp184
g1
(g13
g3
Ntp185
Rp186
(lp187
F0.7965927867241848
aF0.013415624100117035
aF0.8262019260430041
abag1
(g17
g3
Ntp188
Rp189
(lp190
F0.008959838121254827
aF-0.6932753271947358
aF-0.014159940075807797
aF0.7204779927943131
ababsg21
I15
sg22
g1
(g9
g3
Ntp191
Rp192
(lp193
g1
(g13
g3
Ntp194
Rp195
(lp196
F0.7552776023453854
aF0.17131766727735473
aF1.018160879174511
abag1
(g17
g3
Ntp197
Rp198
(lp199
F-0.0041889351180387085
aF0.002720927895190122
aF-0.0034681835217189603
aF0.9999815103675797
ababsbag1
(g2
g3
Ntp200
Rp201
(dp202
g7
I0
sg8
g1
(g9
g3
Ntp203
Rp204
(lp205
g1
(g13
g3
Ntp206
Rp207
(lp208
F0.7965927867241848
aF0.013415624100117035
aF0.8262019260430041
abag1
(g17
g3
Ntp209
Rp210
(lp211
F0.008959838121254827
aF-0.6932753271947358
aF-0.014159940075807797
aF0.7204779927943131
ababsg21
I15
sg22
g1
(g9
g3
Ntp212
Rp213
(lp214
g1
(g13
g3
Ntp215
Rp216
(lp217
F0.7552916940588877
aF0.17115536761212366
aF0.8424251414740278
abag1
(g17
g3
Ntp218
Rp219
(lp220
F-0.0005302967059368725
aF0.003944490964148128
aF-0.002279631357105627
aF0.9999894814733369
ababsba.