(lp0
ccopy_reg
_reconstructor
p1
(c__main__
ActionType
p2
c__builtin__
object
p3
Ntp4
Rp5
(dp6
S'action'
p7
I0
sS'arPose'
p8
g1
(cgeometry_msgs.msg._Pose
Pose
p9
g3
Ntp10
Rp11
(lp12
g1
(cgeometry_msgs.msg._Point
Point
p13
g3
Ntp14
Rp15
(lp16
F0.7965927867241848
aF0.013415624100117035
aF0.8262019260430041
abag1
(cgeometry_msgs.msg._Quaternion
Quaternion
p17
g3
Ntp18
Rp19
(lp20
F0.008959838121254827
aF-0.6932753271947358
aF-0.014159940075807797
aF0.7204779927943131
ababsS'arId'
p21
I15
sS'wristPose'
p22
g1
(g9
g3
Ntp23
Rp24
(lp25
g1
(g13
g3
Ntp26
Rp27
(lp28
F0.7568395453713349
aF0.16742746492917832
aF0.8376326404859358
abag1
(g17
g3
Ntp29
Rp30
(lp31
F0.00015366123972723538
aF0.0011487632052845558
aF-0.0010944395829017154
aF0.9999987294658533
ababsbag1
(g2
g3
Ntp32
Rp33
(dp34
g7
I0
sg8
g1
(g9
g3
Ntp35
Rp36
(lp37
g1
(g13
g3
Ntp38
Rp39
(lp40
F0.7965927867241848
aF0.013415624100117035
aF0.8262019260430041
abag1
(g17
g3
Ntp41
Rp42
(lp43
F0.008959838121254827
aF-0.6932753271947358
aF-0.014159940075807797
aF0.7204779927943131
ababsg21
I15
sg22
g1
(g9
g3
Ntp44
Rp45
(lp46
g1
(g13
g3
Ntp47
Rp48
(lp49
F0.7511062609089024
aF0.08115875838774836
aF0.8379978199723839
abag1
(g17
g3
Ntp50
Rp51
(lp52
F0.003966497198930128
aF-0.0031361080715196295
aF0.021423752096637154
aF0.9997576979309719
ababsbag1
(g2
g3
Ntp53
Rp54
(dp55
g7
I0
sg8
g1
(g9
g3
Ntp56
Rp57
(lp58
g1
(g13
g3
Ntp59
Rp60
(lp61
F0.7965927867241848
aF0.013415624100117035
aF0.8262019260430041
abag1
(g17
g3
Ntp62
Rp63
(lp64
F0.008959838121254827
aF-0.6932753271947358
aF-0.014159940075807797
aF0.7204779927943131
ababsg21
I15
sg22
g1
(g9
g3
Ntp65
Rp66
(lp67
g1
(g13
g3
Ntp68
Rp69
(lp70
F0.7479597141514125
aF0.1635159836186837
aF1.002524710571794
abag1
(g17
g3
Ntp71
Rp72
(lp73
F0.0036157251739462755
aF0.003110456741843191
aF0.017420078010270908
aF0.9998368829326311
ababsbag1
(g2
g3
Ntp74
Rp75
(dp76
g7
I0
sg8
g1
(g9
g3
Ntp77
Rp78
(lp79
g1
(g13
g3
Ntp80
Rp81
(lp82
F0.7965927867241848
aF0.013415624100117035
aF0.8262019260430041
abag1
(g17
g3
Ntp83
Rp84
(lp85
F0.008959838121254827
aF-0.6932753271947358
aF-0.014159940075807797
aF0.7204779927943131
ababsg21
I15
sg22
g1
(g9
g3
Ntp86
Rp87
(lp88
g1
(g13
g3
Ntp89
Rp90
(lp91
F0.7601509505587174
aF-0.14977061142239173
aF1.002560780700306
abag1
(g17
g3
Ntp92
Rp93
(lp94
F0.001534887461924406
aF-0.002084460450328104
aF0.01663038609099443
aF0.9998583546700877
ababsbag1
(g2
g3
Ntp95
Rp96
(dp97
g7
I0
sg8
g1
(g9
g3
Ntp98
Rp99
(lp100
g1
(g13
g3
Ntp101
Rp102
(lp103
F0.7965927867241848
aF0.013415624100117035
aF0.8262019260430041
abag1
(g17
g3
Ntp104
Rp105
(lp106
F0.008959838121254827
aF-0.6932753271947358
aF-0.014159940075807797
aF0.7204779927943131
ababsg21
I15
sg22
g1
(g9
g3
Ntp107
Rp108
(lp109
g1
(g13
g3
Ntp110
Rp111
(lp112
F0.7600033727633783
aF-0.14975554976419952
aF0.8253852011500658
abag1
(g17
g3
Ntp113
Rp114
(lp115
F-0.004383632380476506
aF-0.0025878293227761203
aF0.02174402950752491
aF0.9997506109462123
ababsbag1
(g2
g3
Ntp116
Rp117
(dp118
g7
I0
sg8
g1
(g9
g3
Ntp119
Rp120
(lp121
g1
(g13
g3
Ntp122
Rp123
(lp124
F0.7965927867241848
aF0.013415624100117035
aF0.8262019260430041
abag1
(g17
g3
Ntp125
Rp126
(lp127
F0.008959838121254827
aF-0.6932753271947358
aF-0.014159940075807797
aF0.7204779927943131
ababsg21
I15
sg22
g1
(g9
g3
Ntp128
Rp129
(lp130
g1
(g13
g3
Ntp131
Rp132
(lp133
F0.7561706546749021
aF-0.05120011420789228
aF0.8253934281871442
abag1
(g17
g3
Ntp134
Rp135
(lp136
F0.0033020966086215317
aF-0.0037884757918441292
aF0.023275621341718344
aF0.9997164543310862
ababsbag1
(g2
g3
Ntp137
Rp138
(dp139
g7
I0
sg8
g1
(g9
g3
Ntp140
Rp141
(lp142
g1
(g13
g3
Ntp143
Rp144
(lp145
F0.7965927867241848
aF0.013415624100117035
aF0.8262019260430041
abag1
(g17
g3
Ntp146
Rp147
(lp148
F0.008959838121254827
aF-0.6932753271947358
aF-0.014159940075807797
aF0.7204779927943131
ababsg21
I15
sg22
g1
(g9
g3
Ntp149
Rp150
(lp151
g1
(g13
g3
Ntp152
Rp153
(lp154
F0.7651931096717351
aF-0.1765525037503314
aF0.9975759530600548
abag1
(g17
g3
Ntp155
Rp156
(lp157
F-0.0016396614591763948
aF0.007749485213069422
aF0.02114978027031772
aF0.9997449393639105
ababsbag1
(g2
g3
Ntp158
Rp159
(dp160
g7
I0
sg8
g1
(g9
g3
Ntp161
Rp162
(lp163
g1
(g13
g3
Ntp164
Rp165
(lp166
F0.7965927867241848
aF0.013415624100117035
aF0.8262019260430041
abag1
(g17
g3
Ntp167
Rp168
(lp169
F0.008959838121254827
aF-0.6932753271947358
aF-0.014159940075807797
aF0.7204779927943131
ababsg21
I15
sg22
g1
(g9
g3
Ntp170
Rp171
(lp172
g1
(g13
g3
Ntp173
Rp174
(lp175
F0.7507756337967665
aF0.19007665391456383
aF0.9975848170707635
abag1
(g17
g3
Ntp176
Rp177
(lp178
F-0.005339258352810131
aF0.01020306113237399
aF0.01728159640788791
aF0.99978434489112
ababsbag1
(g2
g3
Ntp179
Rp180
(dp181
g7
I0
sg8
g1
(g9
g3
Ntp182
Rp183
(lp184
g1
(g13
g3
Ntp185
Rp186
(lp187
F0.7965927867241848
aF0.013415624100117035
aF0.8262019260430041
abag1
(g17
g3
Ntp188
Rp189
(lp190
F0.008959838121254827
aF-0.6932753271947358
aF-0.014159940075807797
aF0.7204779927943131
ababsg21
I15
sg22
g1
(g9
g3
Ntp191
Rp192
(lp193
g1
(g13
g3
Ntp194
Rp195
(lp196
F0.7458291758074661
aF0.1898296581807488
aF0.7839361250140352
abag1
(g17
g3
Ntp197
Rp198
(lp199
F0.0043363196896216505
aF0.015279435440043699
aF0.023737207914774926
aF0.9995920568634955
ababsba.