(lp0
ccopy_reg
_reconstructor
p1
(c__main__
ActionType
p2
c__builtin__
object
p3
Ntp4
Rp5
(dp6
S'action'
p7
I0
sS'arPose'
p8
g1
(cgeometry_msgs.msg._Pose
Pose
p9
g3
Ntp10
Rp11
(lp12
g1
(cgeometry_msgs.msg._Point
Point
p13
g3
Ntp14
Rp15
(lp16
F0.7881170982196007
aF-0.15179853086118344
aF0.8256206814153696
abag1
(cgeometry_msgs.msg._Quaternion
Quaternion
p17
g3
Ntp18
Rp19
(lp20
F-0.05588814217352434
aF-0.6991569962951673
aF-0.036778796290986335
aF0.7118309702726466
ababsS'arId'
p21
I3
sS'wristPose'
p22
g1
(g9
g3
Ntp23
Rp24
(lp25
g1
(g13
g3
Ntp26
Rp27
(lp28
F0.734575049823384
aF0.014766870468632759
aF0.8489346719528539
abag1
(g17
g3
Ntp29
Rp30
(lp31
F0.009506211230862049
aF0.007912344298926899
aF-0.08704811511509214
aF0.9961273274088204
ababsbag1
(g2
g3
Ntp32
Rp33
(dp34
g7
I0
sg8
g1
(g9
g3
Ntp35
Rp36
(lp37
g1
(g13
g3
Ntp38
Rp39
(lp40
F0.801380921293188
aF0.03546408159129413
aF0.7074249283767041
abag1
(g17
g3
Ntp41
Rp42
(lp43
F0.013631701766974735
aF-0.003339432024669937
aF0.9785815618452547
aF0.20538050471549382
ababsg21
I3
sg22
g1
(g9
g3
Ntp44
Rp45
(lp46
g1
(g13
g3
Ntp47
Rp48
(lp49
F0.7430050999218688
aF0.06357894540334413
aF0.8492677987420507
abag1
(g17
g3
Ntp50
Rp51
(lp52
F0.001360734472888928
aF0.006372794702358609
aF-0.08689020014950649
aF0.996196581507563
ababsbag1
(g2
g3
Ntp53
Rp54
(dp55
g7
I0
sg8
g1
(g9
g3
Ntp56
Rp57
(lp58
g1
(g13
g3
Ntp59
Rp60
(lp61
F0.7881170982196007
aF-0.15179853086118344
aF0.8256206814153696
abag1
(g17
g3
Ntp62
Rp63
(lp64
F-0.05588814217352434
aF-0.6991569962951673
aF-0.036778796290986335
aF0.7118309702726466
ababsg21
I3
sg22
g1
(g9
g3
Ntp65
Rp66
(lp67
g1
(g13
g3
Ntp68
Rp69
(lp70
F0.738082680174025
aF0.023931077767485334
aF1.0123976454219734
abag1
(g17
g3
Ntp71
Rp72
(lp73
F0.004739322801717723
aF0.002815465010389756
aF-0.08777991943325594
aF0.9961246396513076
ababsbag1
(g2
g3
Ntp74
Rp75
(dp76
g7
I0
sg8
g1
(g9
g3
Ntp77
Rp78
(lp79
g1
(g13
g3
Ntp80
Rp81
(lp82
F0.7881170982196007
aF-0.15179853086118344
aF0.8256206814153696
abag1
(g17
g3
Ntp83
Rp84
(lp85
F-0.05588814217352434
aF-0.6991569962951673
aF-0.036778796290986335
aF0.7118309702726466
ababsg21
I3
sg22
g1
(g9
g3
Ntp86
Rp87
(lp88
g1
(g13
g3
Ntp89
Rp90
(lp91
F0.6769185891427819
aF-0.325831355149751
aF1.0098293773585816
abag1
(g17
g3
Ntp92
Rp93
(lp94
F0.0007080851343701466
aF0.006583364046638589
aF-0.08222706281326328
aF0.9965916255289202
ababsbag1
(g2
g3
Ntp95
Rp96
(dp97
g7
I0
sg8
g1
(g9
g3
Ntp98
Rp99
(lp100
g1
(g13
g3
Ntp101
Rp102
(lp103
F0.7881170982196007
aF-0.15179853086118344
aF0.8256206814153696
abag1
(g17
g3
Ntp104
Rp105
(lp106
F-0.05588814217352434
aF-0.6991569962951673
aF-0.036778796290986335
aF0.7118309702726466
ababsg21
I3
sg22
g1
(g9
g3
Ntp107
Rp108
(lp109
g1
(g13
g3
Ntp110
Rp111
(lp112
F0.6754111382890217
aF-0.3244006291724838
aF0.8653247493938758
abag1
(g17
g3
Ntp113
Rp114
(lp115
F0.0037879348514844205
aF0.0037350682034752495
aF-0.0817033634000455
aF0.9966424941894644
ababsbag1
(g2
g3
Ntp116
Rp117
(dp118
g7
I0
sg8
g1
(g9
g3
Ntp119
Rp120
(lp121
g1
(g13
g3
Ntp122
Rp123
(lp124
F0.801380921293188
aF0.03546408159129413
aF0.7074249283767041
abag1
(g17
g3
Ntp125
Rp126
(lp127
F0.013631701766974735
aF-0.003339432024669937
aF0.9785815618452547
aF0.20538050471549382
ababsg21
I3
sg22
g1
(g9
g3
Ntp128
Rp129
(lp130
g1
(g13
g3
Ntp131
Rp132
(lp133
F0.7421752000650164
aF0.05758747101090192
aF0.8609910449136646
abag1
(g17
g3
Ntp134
Rp135
(lp136
F-0.000491501518658219
aF0.001678521884829574
aF-0.0865657061224178
aF0.9962446082735237
ababsbag1
(g2
g3
Ntp137
Rp138
(dp139
g7
I0
sg8
g1
(g9
g3
Ntp140
Rp141
(lp142
g1
(g13
g3
Ntp143
Rp144
(lp145
F0.7881170982196007
aF-0.15179853086118344
aF0.8256206814153696
abag1
(g17
g3
Ntp146
Rp147
(lp148
F-0.05588814217352434
aF-0.6991569962951673
aF-0.036778796290986335
aF0.7118309702726466
ababsg21
I3
sg22
g1
(g9
g3
Ntp149
Rp150
(lp151
g1
(g13
g3
Ntp152
Rp153
(lp154
F0.6800671271017396
aF-0.3065773717497484
aF0.9851749522620845
abag1
(g17
g3
Ntp155
Rp156
(lp157
F0.008479795687134197
aF0.005772624972718287
aF-0.08299906830715355
aF0.9964968261495735
ababsbag1
(g2
g3
Ntp158
Rp159
(dp160
g7
I0
sg8
g1
(g9
g3
Ntp161
Rp162
(lp163
g1
(g13
g3
Ntp164
Rp165
(lp166
F0.7881170982196007
aF-0.15179853086118344
aF0.8256206814153696
abag1
(g17
g3
Ntp167
Rp168
(lp169
F-0.05588814217352434
aF-0.6991569962951673
aF-0.036778796290986335
aF0.7118309702726466
ababsg21
I3
sg22
g1
(g9
g3
Ntp170
Rp171
(lp172
g1
(g13
g3
Ntp173
Rp174
(lp175
F0.7383317654452864
aF0.027237060325598285
aF0.9875612806557419
abag1
(g17
g3
Ntp176
Rp177
(lp178
F0.0014200211303670898
aF0.008526303446493943
aF-0.083246486554742
aF0.9964914992943085
ababsbag1
(g2
g3
Ntp179
Rp180
(dp181
g7
I0
sg8
g1
(g9
g3
Ntp182
Rp183
(lp184
g1
(g13
g3
Ntp185
Rp186
(lp187
F0.7881170982196007
aF-0.15179853086118344
aF0.8256206814153696
abag1
(g17
g3
Ntp188
Rp189
(lp190
F-0.05588814217352434
aF-0.6991569962951673
aF-0.036778796290986335
aF0.7118309702726466
ababsg21
I3
sg22
g1
(g9
g3
Ntp191
Rp192
(lp193
g1
(g13
g3
Ntp194
Rp195
(lp196
F0.736536866087467
aF0.028896363044911805
aF0.8145884566154737
abag1
(g17
g3
Ntp197
Rp198
(lp199
F-0.00015425088123942348
aF0.009520186845268843
aF-0.08911730835616764
aF0.9959756260072073
ababsba.