(dp0
S'1'
p1
ccopy_reg
_reconstructor
p2
(cgeometry_msgs.msg._Pose
Pose
p3
c__builtin__
object
p4
Ntp5
Rp6
(lp7
g2
(cgeometry_msgs.msg._Point
Point
p8
g4
Ntp9
Rp10
(lp11
F1.8726825714111328
aF-2.4971864223480225
aF0.1
abag2
(cgeometry_msgs.msg._Quaternion
Quaternion
p12
g4
Ntp13
Rp14
(lp15
F-2.3046720798447495e-06
aF2.060549604721018e-06
aF-0.8648852109909058
aF0.5019774436950684
ababsS'0'
p16
g2
(g3
g4
Ntp17
Rp18
(lp19
g2
(g8
g4
Ntp20
Rp21
(lp22
F1.7103006839752197
aF0.41997963190078735
aF0.100010447204113
abag2
(g12
g4
Ntp23
Rp24
(lp25
F-2.847650421244907e-06
aF8.84580185811501e-06
aF-0.022968564182519913
aF0.9997397661209106
ababsS'2'
p26
g2
(g3
g4
Ntp27
Rp28
(lp29
g2
(g8
g4
Ntp30
Rp31
(lp32
F3.1985244750976562
aF-3.0355947017669678
aF0.1
abag2
(g12
g4
Ntp33
Rp34
(lp35
F-1.2321470421738923e-05
aF-2.4873961592675187e-06
aF-0.6126009821891785
aF0.7903953194618225
ababs.