(dp0
S'1'
p1
ccopy_reg
_reconstructor
p2
(cgeometry_msgs.msg._Pose
Pose
p3
c__builtin__
object
p4
Ntp5
Rp6
(lp7
g2
(cgeometry_msgs.msg._Point
Point
p8
g4
Ntp9
Rp10
(lp11
F4.533810138702393
aF-0.5232155323028564
aF0.10006091743707657
abag2
(cgeometry_msgs.msg._Quaternion
Quaternion
p12
g4
Ntp13
Rp14
(lp15
F-2.9067885407130234e-05
aF1.1674935194605496e-05
aF0.009728237986564636
aF-0.9999600648880005
ababsS'0'
p16
g2
(g3
g4
Ntp17
Rp18
(lp19
g2
(g8
g4
Ntp20
Rp21
(lp22
F4.03801965713501
aF2.1744115352630615
aF0.10000026226043701
abag2
(g12
g4
Ntp23
Rp24
(lp25
F9.978180969483219e-06
aF3.7017289287177846e-06
aF0.6716585755348206
aF0.7408612966537476
ababsS'3'
p26
g2
(g3
g4
Ntp27
Rp28
(lp29
g2
(g8
g4
Ntp30
Rp31
(lp32
F3.5418879985809326
aF-1.687590479850769
aF0.10000650584697723
abag2
(g12
g4
Ntp33
Rp34
(lp35
F-4.165467998973327e-06
aF-1.0217136150458828e-05
aF0.7227702736854553
aF-0.6910945773124695
ababsS'2'
p36
g2
(g3
g4
Ntp37
Rp38
(lp39
g2
(g8
g4
Ntp40
Rp41
(lp42
F2.5759315490722656
aF-0.5391080379486084
aF0.10002510249614716
abag2
(g12
g4
Ntp43
Rp44
(lp45
F-4.220987193548353e-06
aF6.257481436477974e-05
aF0.9999765157699585
aF0.0074262842535972595
ababs.