(dp0
S'1'
p1
ccopy_reg
_reconstructor
p2
(cgeometry_msgs.msg._Pose
Pose
p3
c__builtin__
object
p4
Ntp5
Rp6
(lp7
g2
(cgeometry_msgs.msg._Point
Point
p8
g4
Ntp9
Rp10
(lp11
F-5.464234828948975
aF-12.278356552124023
aF0.1
abag2
(cgeometry_msgs.msg._Quaternion
Quaternion
p12
g4
Ntp13
Rp14
(lp15
F0.0
aF0.0
aF0.9116009473800659
aF0.41107767820358276
ababsS'0'
p16
g2
(g3
g4
Ntp17
Rp18
(lp19
g2
(g8
g4
Ntp20
Rp21
(lp22
F-4.078567981719971
aF-13.888340950012207
aF0.10000000894069672
abag2
(g12
g4
Ntp23
Rp24
(lp25
F-1.9891178908437723e-06
aF1.0995229331456358e-06
aF0.36447638273239136
aF0.9312143325805664
ababsS'2'
p26
g2
(g3
g4
Ntp27
Rp28
(lp29
g2
(g8
g4
Ntp30
Rp31
(lp32
F-4.719579219818115
aF-13.087778091430664
aF0.10000000149011612
abag2
(g12
g4
Ntp33
Rp34
(lp35
F3.565940005501034e-07
aF2.2789388367527863e-06
aF0.6273205876350403
aF0.7787612080574036
ababs.