(dp0
S'1'
p1
ccopy_reg
_reconstructor
p2
(cgeometry_msgs.msg._Pose
Pose
p3
c__builtin__
object
p4
Ntp5
Rp6
(lp7
g2
(cgeometry_msgs.msg._Point
Point
p8
g4
Ntp9
Rp10
(lp11
F-4.942773818969727
aF-13.683021545410156
aF0.1
abag2
(cgeometry_msgs.msg._Quaternion
Quaternion
p12
g4
Ntp13
Rp14
(lp15
F2.261575446027564e-06
aF-5.695883828593651e-06
aF0.9955779910087585
aF0.09401969611644745
ababsS'0'
p16
g2
(g3
g4
Ntp17
Rp18
(lp19
g2
(g8
g4
Ntp20
Rp21
(lp22
F-4.075085639953613
aF-13.903813362121582
aF0.1
abag2
(g12
g4
Ntp23
Rp24
(lp25
F-1.2764236316797906e-06
aF9.532848253002157e-07
aF0.3405258059501648
aF0.9402356743812561
ababsS'2'
p26
g2
(g3
g4
Ntp27
Rp28
(lp29
g2
(g8
g4
Ntp30
Rp31
(lp32
F-5.696258068084717
aF-12.177062034606934
aF0.1
abag2
(g12
g4
Ntp33
Rp34
(lp35
F2.0812523871427402e-05
aF-6.486553047579946e-06
aF0.9117001295089722
aF0.4108654260635376
ababs.