(dp0
S'1'
p1
ccopy_reg
_reconstructor
p2
(cgeometry_msgs.msg._Pose
Pose
p3
c__builtin__
object
p4
Ntp5
Rp6
(lp7
g2
(cgeometry_msgs.msg._Point
Point
p8
g4
Ntp9
Rp10
(lp11
F3.9509589856986542
aF-1.9998402583130839
aF0.1
abag2
(cgeometry_msgs.msg._Quaternion
Quaternion
p12
g4
Ntp13
Rp14
(lp15
F0.0
aF0.0
aF0.8333358174830359
aF0.5527670533777138
ababsS'shelf'
p16
g2
(g3
g4
Ntp17
Rp18
(lp19
g2
(g8
g4
Ntp20
Rp21
(lp22
F2.7304571566281903
aF1.7907298144491501
aF0.1
abag2
(g12
g4
Ntp23
Rp24
(lp25
F0.0
aF0.0
aF0.5172277293752333
aF0.85584781121724
ababsS'0'
p26
g2
(g3
g4
Ntp27
Rp28
(lp29
g2
(g8
g4
Ntp30
Rp31
(lp32
F4.226867077718338
aF0.19954571864854936
aF0.1
abag2
(g12
g4
Ntp33
Rp34
(lp35
F0.0
aF0.0
aF-0.949666336536051
aF0.31326322677613455
ababs.