(lp0
ccopy_reg
_reconstructor
p1
(c__main__
ActionType
p2
c__builtin__
object
p3
Ntp4
Rp5
(dp6
S'action'
p7
I0
sS'arPose'
p8
g1
(cgeometry_msgs.msg._Pose
Pose
p9
g3
Ntp10
Rp11
(lp12
g1
(cgeometry_msgs.msg._Point
Point
p13
g3
Ntp14
Rp15
(lp16
F0.7617652952671051
aF0.06421970785595477
aF0.8249682568013668
abag1
(cgeometry_msgs.msg._Quaternion
Quaternion
p17
g3
Ntp18
Rp19
(lp20
F0.22355887225757748
aF-0.6861507871720204
aF0.27002122916035237
aF0.6374222020771393
ababsS'arId'
p21
I15
sS'wristPose'
p22
g1
(g9
g3
Ntp23
Rp24
(lp25
g1
(g13
g3
Ntp26
Rp27
(lp28
F0.6006553658440225
aF-0.060597663816341144
aF0.9068605154129138
abag1
(g17
g3
Ntp29
Rp30
(lp31
F-0.0017584935537193445
aF0.0022420422105095122
aF0.32862865951551756
aF0.9444549142718153
ababsbag1
(g2
g3
Ntp32
Rp33
(dp34
g7
I0
sg8
g1
(g9
g3
Ntp35
Rp36
(lp37
g1
(g13
g3
Ntp38
Rp39
(lp40
F0.7617652952671051
aF0.06421970785595477
aF0.8249682568013668
abag1
(g17
g3
Ntp41
Rp42
(lp43
F0.22355887225757748
aF-0.6861507871720204
aF0.27002122916035237
aF0.6374222020771393
ababsg21
I15
sg22
g1
(g9
g3
Ntp44
Rp45
(lp46
g1
(g13
g3
Ntp47
Rp48
(lp49
F0.7455751994962422
aF0.05196960973532877
aF0.9066716000862807
abag1
(g17
g3
Ntp50
Rp51
(lp52
F0.0006150959878602865
aF0.0003247071460998115
aF0.32435519345963554
aF0.9459351059654977
ababsba.