(lp0
ccopy_reg
_reconstructor
p1
(c__main__
ActionType
p2
c__builtin__
object
p3
Ntp4
Rp5
(dp6
S'action'
p7
I0
sS'arPose'
p8
g1
(cgeometry_msgs.msg._Pose
Pose
p9
g3
Ntp10
Rp11
(lp12
g1
(cgeometry_msgs.msg._Point
Point
p13
g3
Ntp14
Rp15
(lp16
F0.7617652952671051
aF0.06421970785595477
aF0.8249682568013668
abag1
(cgeometry_msgs.msg._Quaternion
Quaternion
p17
g3
Ntp18
Rp19
(lp20
F0.22355887225757748
aF-0.6861507871720204
aF0.27002122916035237
aF0.6374222020771393
ababsS'arId'
p21
I15
sS'wristPose'
p22
g1
(g9
g3
Ntp23
Rp24
(lp25
g1
(g13
g3
Ntp26
Rp27
(lp28
F0.782863773165839
aF-0.13023794152832532
aF0.8516610303374335
abag1
(g17
g3
Ntp29
Rp30
(lp31
F0.0048635065697941685
aF-0.00136538310625719
aF0.3216317624730167
aF0.9468513565503931
ababsbag1
(g2
g3
Ntp32
Rp33
(dp34
g7
I0
sg8
g1
(g9
g3
Ntp35
Rp36
(lp37
g1
(g13
g3
Ntp38
Rp39
(lp40
F0.7617652952671051
aF0.06421970785595477
aF0.8249682568013668
abag1
(g17
g3
Ntp41
Rp42
(lp43
F0.22355887225757748
aF-0.6861507871720204
aF0.27002122916035237
aF0.6374222020771393
ababsg21
I15
sg22
g1
(g9
g3
Ntp44
Rp45
(lp46
g1
(g13
g3
Ntp47
Rp48
(lp49
F0.5605011344198024
aF0.15592830325916085
aF0.8516197947523984
abag1
(g17
g3
Ntp50
Rp51
(lp52
F-0.002938301948111825
aF-0.00019401834689084836
aF0.32296400393981084
aF0.946406667821877
ababsbag1
(g2
g3
Ntp53
Rp54
(dp55
g7
I0
sg8
g1
(g9
g3
Ntp56
Rp57
(lp58
g1
(g13
g3
Ntp59
Rp60
(lp61
F0.7617652952671051
aF0.06421970785595477
aF0.8249682568013668
abag1
(g17
g3
Ntp62
Rp63
(lp64
F0.22355887225757748
aF-0.6861507871720204
aF0.27002122916035237
aF0.6374222020771393
ababsg21
I15
sg22
g1
(g9
g3
Ntp65
Rp66
(lp67
g1
(g13
g3
Ntp68
Rp69
(lp70
F0.757055728722249
aF-0.07829996699509342
aF0.8525850874843364
abag1
(g17
g3
Ntp71
Rp72
(lp73
F0.000158549568725668
aF0.058971973603270424
aF0.3153488016015731
aF0.9471417077290077
ababsba.